target datalayout = "e-m:e-p270:32:32-p271:32:32-p272:64:64-i64:64-i128:128-f80:128-n8:16:32:64-S128"
target triple = "x86_64-pc-linux-gnu"

%struct.Vec_Str_t_ = type { i32, i32, ptr }

@.str.17 = private unnamed_addr constant [3 x i8] c"wb\00", align 1
@.str.104 = private unnamed_addr constant [10 x i8] c"endmodule\00", align 1
@.str.105 = private unnamed_addr constant [4 x i8] c"\0A%s\00", align 1
@.str.106 = private unnamed_addr constant [5 x i8] c"\0A%s\0A\00", align 1

; Function Attrs: nounwind uwtable
define internal ptr @Vec_StrArray(ptr noundef %0) #0 {
  %2 = alloca ptr, align 8
  store ptr %0, ptr %2, align 8
  %3 = load ptr, ptr %2, align 8
  %4 = getelementptr inbounds %struct.Vec_Str_t_, ptr %3, i32 0, i32 2
  %5 = load ptr, ptr %4, align 8
  ret ptr %5
}

; Function Attrs: nounwind uwtable
define void @Acb_GenerateFileOut(ptr noundef %0, ptr noundef %1, ptr noundef %2, ptr noundef %3) #0 {
  %5 = alloca ptr, align 8
  %6 = alloca ptr, align 8
  %7 = alloca ptr, align 8
  %8 = alloca ptr, align 8
  %9 = alloca ptr, align 8
  %10 = alloca ptr, align 8
  %11 = alloca ptr, align 8
  %12 = alloca i32, align 4
  %13 = alloca i32, align 4
  %14 = alloca i32, align 4
  store ptr %0, ptr %5, align 8
  store ptr %1, ptr %6, align 8
  store ptr %2, ptr %7, align 8
  store ptr %3, ptr %8, align 8
  %15 = load ptr, ptr %6, align 8
  %16 = call ptr @Extra_FileReadContents(ptr noundef %15)
  store ptr %16, ptr %10, align 8
  %17 = load ptr, ptr %10, align 8
  %18 = icmp eq ptr %17, null
  br i1 %18, label %19, label %20

19:                                               ; preds = %4
  br label %76

20:                                               ; preds = %4
  %21 = load ptr, ptr %7, align 8
  %22 = call noalias ptr @fopen(ptr noundef %21, ptr noundef @.str.17)
  store ptr %22, ptr %9, align 8
  %23 = load ptr, ptr %9, align 8
  %24 = icmp ne ptr %23, null
  br i1 %24, label %25, label %67

25:                                               ; preds = %20
  %26 = load ptr, ptr %10, align 8
  %27 = call ptr @strstr(ptr noundef %26, ptr noundef @.str.104) #12
  store ptr %27, ptr %11, align 8
  %28 = load ptr, ptr %11, align 8
  %29 = load ptr, ptr %10, align 8
  %30 = ptrtoint ptr %28 to i64
  %31 = ptrtoint ptr %29 to i64
  %32 = sub i64 %30, %31
  %33 = trunc i64 %32 to i32
  store i32 %33, ptr %12, align 4
  %34 = load ptr, ptr %10, align 8
  %35 = call i64 @strlen(ptr noundef %34) #12
  %36 = load i32, ptr %12, align 4
  %37 = sext i32 %36 to i64
  %38 = sub i64 %35, %37
  %39 = trunc i64 %38 to i32
  store i32 %39, ptr %13, align 4
  %40 = load ptr, ptr %10, align 8
  %41 = load i32, ptr %12, align 4
  %42 = sext i32 %41 to i64
  %43 = load ptr, ptr %9, align 8
  %44 = call i64 @fwrite(ptr noundef %40, i64 noundef %42, i64 noundef 1, ptr noundef %43)
  %45 = trunc i64 %44 to i32
  store i32 %45, ptr %14, align 4
  %46 = load ptr, ptr %9, align 8
  %47 = load ptr, ptr %5, align 8
  %48 = call ptr @Vec_StrArray(ptr noundef %47)
  %49 = call i32 (ptr, ptr, ...) @fprintf(ptr noundef %46, ptr noundef @.str.105, ptr noundef %48) #13
  %50 = load ptr, ptr %10, align 8
  %51 = load i32, ptr %12, align 4
  %52 = sext i32 %51 to i64
  %53 = getelementptr inbounds i8, ptr %50, i64 %52
  %54 = load i32, ptr %13, align 4
  %55 = sext i32 %54 to i64
  %56 = load ptr, ptr %9, align 8
  %57 = call i64 @fwrite(ptr noundef %53, i64 noundef %55, i64 noundef 1, ptr noundef %56)
  %58 = trunc i64 %57 to i32
  store i32 %58, ptr %14, align 4
  %59 = load ptr, ptr %8, align 8
  %60 = icmp ne ptr %59, null
  br i1 %60, label %61, label %66

61:                                               ; preds = %25
  %62 = load ptr, ptr %9, align 8
  %63 = load ptr, ptr %8, align 8
  %64 = call ptr @Vec_StrArray(ptr noundef %63)
  %65 = call i32 (ptr, ptr, ...) @fprintf(ptr noundef %62, ptr noundef @.str.106, ptr noundef %64) #13
  br label %66

66:                                               ; preds = %61, %25
  br label %67

67:                                               ; preds = %66, %20
  %68 = load ptr, ptr %10, align 8
  %69 = icmp ne ptr %68, null
  br i1 %69, label %70, label %72

70:                                               ; preds = %67
  %71 = load ptr, ptr %10, align 8
  call void @free(ptr noundef %71) #13
  store ptr null, ptr %10, align 8
  br label %73

72:                                               ; preds = %67
  br label %73

73:                                               ; preds = %72, %70
  %74 = load ptr, ptr %9, align 8
  %75 = call i32 @fclose(ptr noundef %74)
  br label %76

76:                                               ; preds = %73, %19
  ret void
}