; Function Attrs: nounwind uwtable
define void @Acb_GenerateFileOut(ptr noundef readonly captures(none) %0, ptr noundef %1, ptr noundef readonly captures(none) %2, ptr noundef readonly %3) local_unnamed_addr #0 {
  %5 = tail call ptr @Extra_FileReadContents(ptr noundef %1) #31
  %6 = icmp eq ptr %5, null
  br i1 %6, label %28, label %7

7:                                                ; preds = %4
  %8 = tail call noalias ptr @fopen(ptr noundef %2, ptr noundef nonnull @.str.17)
  %.not = icmp eq ptr %8, null
  br i1 %.not, label %26, label %9

9:                                                ; preds = %7
  %10 = tail call ptr @strstr(ptr noundef nonnull dereferenceable(1) %5, ptr noundef nonnull dereferenceable(1) @.str.104) #32
  %11 = ptrtoint ptr %10 to i64
  %12 = ptrtoint ptr %5 to i64
  %13 = sub i64 %11, %12
  %14 = tail call i64 @strlen(ptr noundef nonnull dereferenceable(1) %5) #32
  %sext = shl i64 %13, 32
  %15 = ashr exact i64 %sext, 32
  %16 = sub i64 %14, %13
  %17 = tail call i64 @fwrite(ptr noundef nonnull %5, i64 noundef %15, i64 noundef 1, ptr noundef nonnull %8)
  %18 = getelementptr i8, ptr %0, i64 8
  %.val27 = load ptr, ptr %18, align 8
  %19 = tail call i32 (ptr, ptr, ...) @fprintf(ptr noundef nonnull %8, ptr noundef nonnull @.str.105, ptr noundef %.val27) #31
  %20 = getelementptr inbounds i8, ptr %5, i64 %15
  %sext25 = shl i64 %16, 32
  %21 = ashr exact i64 %sext25, 32
  %22 = tail call i64 @fwrite(ptr noundef nonnull %20, i64 noundef %21, i64 noundef 1, ptr noundef nonnull %8)
  %.not26 = icmp eq ptr %3, null
  br i1 %.not26, label %26, label %23

23:                                               ; preds = %9
  %24 = getelementptr i8, ptr %3, i64 8
  %.val = load ptr, ptr %24, align 8
  %25 = tail call i32 (ptr, ptr, ...) @fprintf(ptr noundef nonnull %8, ptr noundef nonnull @.str.106, ptr noundef %.val) #31
  br label %26

26:                                               ; preds = %7, %23, %9
  tail call void @free(ptr noundef nonnull %5) #31
  %27 = tail call i32 @fclose(ptr noundef %8)
  br label %28

28:                                               ; preds = %4, %26
  ret void
}